target datalayout = "e-m:e-p270:32:32-p271:32:32-p272:64:64-i64:64-i128:128-f80:128-n8:16:32:64-S128"
target triple = "x86_64-pc-linux-gnu"

%"class.std::__cxx11::basic_string" = type { %"struct.std::__cxx11::basic_string<char>::_Alloc_hider", i64, %union.anon }
%"struct.std::__cxx11::basic_string<char>::_Alloc_hider" = type { ptr }
%union.anon = type { i64, [8 x i8] }
%"class.std::allocator" = type { i8 }

@.str.11 = private unnamed_addr constant [124 x i8] c"generated/home/dtcxzyw/WorkSpace/Projects/compilers/llvm-opt-benchmark/bench/opencv/opencv/modules/core/src/persistence.cpp\00", align 1
@.str.15 = private unnamed_addr constant [34 x i8] c"Too complex format for the matrix\00", align 1
@__func__._ZN2cv2fs18decodeSimpleFormatEPKc = private unnamed_addr constant [19 x i8] c"decodeSimpleFormat\00", align 1

; Function Attrs: mustprogress nounwind uwtable
define linkonce_odr hidden void @_ZNSt15__new_allocatorIcE10deallocateEPcm(ptr noundef nonnull align 1 dereferenceable(1) %0, ptr noundef %1, i64 noundef %2) #8 comdat align 2 {
  %4 = alloca ptr, align 8
  %5 = alloca ptr, align 8
  %6 = alloca i64, align 8
  store ptr %0, ptr %4, align 8, !tbaa !346
  store ptr %1, ptr %5, align 8, !tbaa !3
  store i64 %2, ptr %6, align 8, !tbaa !8
  %7 = load ptr, ptr %5, align 8, !tbaa !3
  call void @_ZdlPv(ptr noundef %7) #27
  ret void
}

; Function Attrs: mustprogress nounwind uwtable
define linkonce_odr hidden noundef ptr @_ZNSt19__ptr_traits_ptr_toIPKcS0_Lb0EE10pointer_toERS0_(ptr noundef nonnull align 1 dereferenceable(1) %0) #8 comdat align 2 {
  %2 = alloca ptr, align 8
  store ptr %0, ptr %2, align 8, !tbaa !3
  %3 = load ptr, ptr %2, align 8, !tbaa !3
  ret ptr %3
}

; Function Attrs: mustprogress uwtable
define linkonce_odr hidden void @_ZNSt16allocator_traitsISaIcEE10deallocateERS0_Pcm(ptr noundef nonnull align 1 dereferenceable(1) %0, ptr noundef %1, i64 noundef %2) #4 comdat align 2 {
  %4 = alloca ptr, align 8
  %5 = alloca ptr, align 8
  %6 = alloca i64, align 8
  store ptr %0, ptr %4, align 8, !tbaa !32
  store ptr %1, ptr %5, align 8, !tbaa !3
  store i64 %2, ptr %6, align 8, !tbaa !8
  %7 = load ptr, ptr %4, align 8, !tbaa !32
  %8 = load ptr, ptr %5, align 8, !tbaa !3
  %9 = load i64, ptr %6, align 8, !tbaa !8
  call void @_ZNSt15__new_allocatorIcE10deallocateEPcm(ptr noundef nonnull align 1 dereferenceable(1) %7, ptr noundef %8, i64 noundef %9)
  ret void
}

; Function Attrs: mustprogress nounwind uwtable
define available_externally noundef nonnull align 1 dereferenceable(1) ptr @_ZNSt7__cxx1112basic_stringIcSt11char_traitsIcESaIcEE16_M_get_allocatorEv(ptr noundef nonnull align 8 dereferenceable(32) %0) #8 align 2 {
  %2 = alloca ptr, align 8
  store ptr %0, ptr %2, align 8, !tbaa !34
  %3 = load ptr, ptr %2, align 8
  %4 = getelementptr inbounds nuw %"class.std::__cxx11::basic_string", ptr %3, i32 0, i32 0
  ret ptr %4
}

; Function Attrs: mustprogress nounwind uwtable
define available_externally noundef ptr @_ZNKSt7__cxx1112basic_stringIcSt11char_traitsIcESaIcEE13_M_local_dataEv(ptr noundef nonnull align 8 dereferenceable(32) %0) #8 align 2 {
  %2 = alloca ptr, align 8
  store ptr %0, ptr %2, align 8, !tbaa !34
  %3 = load ptr, ptr %2, align 8
  %4 = getelementptr inbounds nuw %"class.std::__cxx11::basic_string", ptr %3, i32 0, i32 2
  %5 = getelementptr inbounds [16 x i8], ptr %4, i64 0, i64 0
  %6 = call noundef ptr @_ZNSt19__ptr_traits_ptr_toIPKcS0_Lb0EE10pointer_toERS0_(ptr noundef nonnull align 1 dereferenceable(1) %5) #3
  ret ptr %6
}

; Function Attrs: mustprogress nounwind uwtable
define available_externally noundef ptr @_ZNKSt7__cxx1112basic_stringIcSt11char_traitsIcESaIcEE7_M_dataEv(ptr noundef nonnull align 8 dereferenceable(32) %0) #8 align 2 {
  %2 = alloca ptr, align 8
  store ptr %0, ptr %2, align 8, !tbaa !34
  %3 = load ptr, ptr %2, align 8
  %4 = getelementptr inbounds nuw %"class.std::__cxx11::basic_string", ptr %3, i32 0, i32 0
  %5 = getelementptr inbounds nuw %"struct.std::__cxx11::basic_string<char>::_Alloc_hider", ptr %4, i32 0, i32 0
  %6 = load ptr, ptr %5, align 8, !tbaa !489
  ret ptr %6
}

; Function Attrs: mustprogress nounwind uwtable
define available_externally void @_ZNSt7__cxx1112basic_stringIcSt11char_traitsIcESaIcEE10_M_destroyEm(ptr noundef nonnull align 8 dereferenceable(32) %0, i64 noundef %1) #8 align 2 personality ptr @__gxx_personality_v0 {
  %3 = alloca ptr, align 8
  %4 = alloca i64, align 8
  %5 = alloca ptr, align 8
  %6 = alloca i32, align 4
  store ptr %0, ptr %3, align 8, !tbaa !34
  store i64 %1, ptr %4, align 8, !tbaa !8
  %7 = load ptr, ptr %3, align 8
  %8 = invoke noundef nonnull align 1 dereferenceable(1) ptr @_ZNSt7__cxx1112basic_stringIcSt11char_traitsIcESaIcEE16_M_get_allocatorEv(ptr noundef nonnull align 8 dereferenceable(32) %7)
          to label %9 unwind label %14

9:                                                ; preds = %2
  %10 = call noundef ptr @_ZNKSt7__cxx1112basic_stringIcSt11char_traitsIcESaIcEE7_M_dataEv(ptr noundef nonnull align 8 dereferenceable(32) %7)
  %11 = load i64, ptr %4, align 8, !tbaa !8
  %12 = add i64 %11, 1
  invoke void @_ZNSt16allocator_traitsISaIcEE10deallocateERS0_Pcm(ptr noundef nonnull align 1 dereferenceable(1) %8, ptr noundef %10, i64 noundef %12)
          to label %13 unwind label %14

13:                                               ; preds = %9
  ret void

14:                                               ; preds = %9, %2
  %15 = landingpad { ptr, i32 }
          filter [0 x ptr] zeroinitializer
  %16 = extractvalue { ptr, i32 } %15, 0
  store ptr %16, ptr %5, align 8
  %17 = extractvalue { ptr, i32 } %15, 1
  store i32 %17, ptr %6, align 4
  br label %18

18:                                               ; preds = %14
  %19 = load ptr, ptr %5, align 8
  call void @__cxa_call_unexpected(ptr %19) #25
  unreachable
}

; Function Attrs: mustprogress uwtable
define available_externally noundef zeroext i1 @_ZNKSt7__cxx1112basic_stringIcSt11char_traitsIcESaIcEE11_M_is_localEv(ptr noundef nonnull align 8 dereferenceable(32) %0) #4 align 2 {
  %2 = alloca i1, align 1
  %3 = alloca ptr, align 8
  store ptr %0, ptr %3, align 8, !tbaa !34
  %4 = load ptr, ptr %3, align 8
  %5 = call noundef ptr @_ZNKSt7__cxx1112basic_stringIcSt11char_traitsIcESaIcEE7_M_dataEv(ptr noundef nonnull align 8 dereferenceable(32) %4)
  %6 = call noundef ptr @_ZNKSt7__cxx1112basic_stringIcSt11char_traitsIcESaIcEE13_M_local_dataEv(ptr noundef nonnull align 8 dereferenceable(32) %4)
  %7 = icmp eq ptr %5, %6
  br i1 %7, label %8, label %14

8:                                                ; preds = %1
  %9 = getelementptr inbounds nuw %"class.std::__cxx11::basic_string", ptr %4, i32 0, i32 1
  %10 = load i64, ptr %9, align 8, !tbaa !181
  %11 = icmp ugt i64 %10, 15
  br i1 %11, label %12, label %13

12:                                               ; preds = %8
  unreachable

13:                                               ; preds = %8
  store i1 true, ptr %2, align 1
  br label %15

14:                                               ; preds = %1
  store i1 false, ptr %2, align 1
  br label %15

15:                                               ; preds = %14, %13
  %16 = load i1, ptr %2, align 1
  ret i1 %16
}

; Function Attrs: noinline noreturn nounwind uwtable
define linkonce_odr hidden void @__clang_call_terminate(ptr noundef %0) #12 comdat {
  %2 = call ptr @__cxa_begin_catch(ptr %0) #3
  call void @_ZSt9terminatev() #26
  unreachable
}

; Function Attrs: mustprogress uwtable
define available_externally void @_ZNSt7__cxx1112basic_stringIcSt11char_traitsIcESaIcEE10_M_disposeEv(ptr noundef nonnull align 8 dereferenceable(32) %0) #4 align 2 {
  %2 = alloca ptr, align 8
  store ptr %0, ptr %2, align 8, !tbaa !34
  %3 = load ptr, ptr %2, align 8
  %4 = call noundef zeroext i1 @_ZNKSt7__cxx1112basic_stringIcSt11char_traitsIcESaIcEE11_M_is_localEv(ptr noundef nonnull align 8 dereferenceable(32) %3)
  br i1 %4, label %8, label %5

5:                                                ; preds = %1
  %6 = getelementptr inbounds nuw %"class.std::__cxx11::basic_string", ptr %3, i32 0, i32 2
  %7 = load i64, ptr %6, align 8, !tbaa !10
  call void @_ZNSt7__cxx1112basic_stringIcSt11char_traitsIcESaIcEE10_M_destroyEm(ptr noundef nonnull align 8 dereferenceable(32) %3, i64 noundef %7) #3
  br label %8

8:                                                ; preds = %5, %1
  ret void
}

; Function Attrs: mustprogress nounwind uwtable
define linkonce_odr hidden void @_ZNSt15__new_allocatorIcEC2Ev(ptr noundef nonnull align 1 dereferenceable(1) %0) unnamed_addr #8 comdat align 2 {
  %2 = alloca ptr, align 8
  store ptr %0, ptr %2, align 8, !tbaa !346
  ret void
}

; Function Attrs: mustprogress nounwind uwtable
define linkonce_odr hidden void @_ZNSt15__new_allocatorIcED2Ev(ptr noundef nonnull align 1 dereferenceable(1) %0) unnamed_addr #8 comdat align 2 {
  %2 = alloca ptr, align 8
  store ptr %0, ptr %2, align 8, !tbaa !346
  ret void
}

; Function Attrs: mustprogress nounwind uwtable
define available_externally void @_ZNSt7__cxx1112basic_stringIcSt11char_traitsIcESaIcEED2Ev(ptr noundef nonnull align 8 dereferenceable(32) %0) unnamed_addr #8 align 2 personality ptr @__gxx_personality_v0 {
  %2 = alloca ptr, align 8
  store ptr %0, ptr %2, align 8, !tbaa !34
  %3 = load ptr, ptr %2, align 8
  invoke void @_ZNSt7__cxx1112basic_stringIcSt11char_traitsIcESaIcEE10_M_disposeEv(ptr noundef nonnull align 8 dereferenceable(32) %3)
          to label %4 unwind label %6

4:                                                ; preds = %1
  %5 = getelementptr inbounds nuw %"class.std::__cxx11::basic_string", ptr %3, i32 0, i32 0
  call void @_ZNSt15__new_allocatorIcED2Ev(ptr noundef nonnull align 8 dereferenceable(8) %5) #3
  ret void

6:                                                ; preds = %1
  %7 = landingpad { ptr, i32 }
          catch ptr null
  %8 = extractvalue { ptr, i32 } %7, 0
  call void @__clang_call_terminate(ptr %8) #26
  unreachable
}

; Function Attrs: mustprogress nounwind uwtable
define available_externally void @_ZNSaIcEC2Ev(ptr noundef nonnull align 1 dereferenceable(1) %0) unnamed_addr #8 align 2 {
  %2 = alloca ptr, align 8
  store ptr %0, ptr %2, align 8, !tbaa !32
  %3 = load ptr, ptr %2, align 8
  call void @_ZNSt15__new_allocatorIcEC2Ev(ptr noundef nonnull align 1 dereferenceable(1) %3) #3
  ret void
}

; Function Attrs: mustprogress uwtable
define hidden noundef i32 @_ZN2cv2fs18decodeSimpleFormatEPKc(ptr noundef %0) #4 personality ptr @__gxx_personality_v0 {
  %2 = alloca ptr, align 8
  %3 = alloca i32, align 4
  %4 = alloca [128 x i32], align 16
  %5 = alloca i32, align 4
  %6 = alloca %"class.std::__cxx11::basic_string", align 8
  %7 = alloca %"class.std::allocator", align 1
  %8 = alloca ptr, align 8
  %9 = alloca i32, align 4
  store ptr %0, ptr %2, align 8, !tbaa !3
  call void @llvm.lifetime.start.p0(i64 4, ptr %3) #3
  store i32 -1, ptr %3, align 4, !tbaa !11
  call void @llvm.lifetime.start.p0(i64 512, ptr %4) #3
  call void @llvm.lifetime.start.p0(i64 4, ptr %5) #3
  %10 = load ptr, ptr %2, align 8, !tbaa !3
  %11 = getelementptr inbounds [128 x i32], ptr %4, i64 0, i64 0
  %12 = call noundef i32 @_ZN2cv2fs12decodeFormatEPKcPii(ptr noundef %10, ptr noundef %11, i32 noundef 128)
  store i32 %12, ptr %5, align 4, !tbaa !11
  %13 = load i32, ptr %5, align 4, !tbaa !11
  %14 = icmp ne i32 %13, 1
  br i1 %14, label %19, label %15

15:                                               ; preds = %1
  %16 = getelementptr inbounds [128 x i32], ptr %4, i64 0, i64 0
  %17 = load i32, ptr %16, align 16, !tbaa !11
  %18 = icmp sge i32 %17, 512
  br i1 %18, label %19, label %31

19:                                               ; preds = %15, %1
  call void @llvm.lifetime.start.p0(i64 32, ptr %6) #3
  call void @llvm.lifetime.start.p0(i64 1, ptr %7) #3
  call void @_ZNSaIcEC2Ev(ptr noundef nonnull align 1 dereferenceable(1) %7) #3
  invoke void @_ZNSt7__cxx1112basic_stringIcSt11char_traitsIcESaIcEEC2EPKcRKS3_(ptr noundef nonnull align 8 dereferenceable(32) %6, ptr noundef @.str.15, ptr noundef nonnull align 1 dereferenceable(1) %7)
          to label %20 unwind label %22

20:                                               ; preds = %19
  invoke void @_ZN2cv5errorEiRKNSt7__cxx1112basic_stringIcSt11char_traitsIcESaIcEEEPKcS9_i(i32 noundef -2, ptr noundef nonnull align 8 dereferenceable(32) %6, ptr noundef @__func__._ZN2cv2fs18decodeSimpleFormatEPKc, ptr noundef @.str.11, i32 noundef 323) #25
          to label %21 unwind label %26

21:                                               ; preds = %20
  unreachable

22:                                               ; preds = %19
  %23 = landingpad { ptr, i32 }
          cleanup
  %24 = extractvalue { ptr, i32 } %23, 0
  store ptr %24, ptr %8, align 8
  %25 = extractvalue { ptr, i32 } %23, 1
  store i32 %25, ptr %9, align 4
  br label %30

26:                                               ; preds = %20
  %27 = landingpad { ptr, i32 }
          cleanup
  %28 = extractvalue { ptr, i32 } %27, 0
  store ptr %28, ptr %8, align 8
  %29 = extractvalue { ptr, i32 } %27, 1
  store i32 %29, ptr %9, align 4
  call void @_ZNSt7__cxx1112basic_stringIcSt11char_traitsIcESaIcEED2Ev(ptr noundef nonnull align 8 dereferenceable(32) %6) #3
  br label %30

30:                                               ; preds = %26, %22
  call void @_ZNSt15__new_allocatorIcED2Ev(ptr noundef nonnull align 1 dereferenceable(1) %7) #3
  call void @llvm.lifetime.end.p0(i64 1, ptr %7) #3
  call void @llvm.lifetime.end.p0(i64 32, ptr %6) #3
  call void @llvm.lifetime.end.p0(i64 4, ptr %5) #3
  call void @llvm.lifetime.end.p0(i64 512, ptr %4) #3
  call void @llvm.lifetime.end.p0(i64 4, ptr %3) #3
  br label %41

31:                                               ; preds = %15
  %32 = getelementptr inbounds [128 x i32], ptr %4, i64 0, i64 1
  %33 = load i32, ptr %32, align 4, !tbaa !11
  %34 = and i32 %33, 7
  %35 = getelementptr inbounds [128 x i32], ptr %4, i64 0, i64 0
  %36 = load i32, ptr %35, align 16, !tbaa !11
  %37 = sub nsw i32 %36, 1
  %38 = shl i32 %37, 3
  %39 = add nsw i32 %34, %38
  store i32 %39, ptr %3, align 4, !tbaa !11
  %40 = load i32, ptr %3, align 4, !tbaa !11
  call void @llvm.lifetime.end.p0(i64 4, ptr %5) #3
  call void @llvm.lifetime.end.p0(i64 512, ptr %4) #3
  call void @llvm.lifetime.end.p0(i64 4, ptr %3) #3
  ret i32 %40

41:                                               ; preds = %30
  %42 = load ptr, ptr %8, align 8
  %43 = load i32, ptr %9, align 4
  %44 = insertvalue { ptr, i32 } poison, ptr %42, 0
  %45 = insertvalue { ptr, i32 } %44, i32 %43, 1
  resume { ptr, i32 } %45
}