; Function Attrs: mustprogress uwtable
define hidden noundef i32 @_ZN2cv2fs18decodeSimpleFormatEPKc(ptr noundef %0) local_unnamed_addr #13 personality ptr @__gxx_personality_v0 {
  %2 = alloca [128 x i32], align 16
  %3 = alloca %"class.std::__cxx11::basic_string", align 8
  %4 = alloca %"class.std::allocator", align 1
  call void @llvm.lifetime.start.p0(i64 512, ptr nonnull %2) #41
  %5 = call noundef i32 @_ZN2cv2fs12decodeFormatEPKcPii(ptr noundef %0, ptr noundef nonnull %2, i32 noundef 128)
  %6 = icmp ne i32 %5, 1
  %7 = load i32, ptr %2, align 16
  %8 = icmp sgt i32 %7, 511
  %or.cond = select i1 %6, i1 true, i1 %8
  br i1 %or.cond, label %9, label %19

9:                                                ; preds = %1
  call void @llvm.lifetime.start.p0(i64 32, ptr nonnull %3) #41
  call void @llvm.lifetime.start.p0(i64 1, ptr nonnull %4) #41
  call void @_ZNSt7__cxx1112basic_stringIcSt11char_traitsIcESaIcEEC2EPKcRKS3_(ptr noundef nonnull align 8 dereferenceable(32) %3, ptr noundef nonnull @.str.15, ptr noundef nonnull align 1 dereferenceable(1) %4)
  invoke void @_ZN2cv5errorEiRKNSt7__cxx1112basic_stringIcSt11char_traitsIcESaIcEEEPKcS9_i(i32 noundef -2, ptr noundef nonnull align 8 dereferenceable(32) %3, ptr noundef nonnull @__func__._ZN2cv2fs18decodeSimpleFormatEPKc, ptr noundef nonnull @.str.11, i32 noundef 323) #42
          to label %10 unwind label %11

10:                                               ; preds = %9
  unreachable

11:                                               ; preds = %9
  %12 = landingpad { ptr, i32 }
          cleanup
  %13 = load ptr, ptr %3, align 8, !tbaa !12
  %14 = getelementptr inbounds nuw i8, ptr %3, i64 16
  %15 = icmp eq ptr %13, %14
  br i1 %15, label %_ZNKSt7__cxx1112basic_stringIcSt11char_traitsIcESaIcEE11_M_is_localEv.exit.thread.i.i, label %_ZNKSt7__cxx1112basic_stringIcSt11char_traitsIcESaIcEE11_M_is_localEv.exit.i.i

_ZNKSt7__cxx1112basic_stringIcSt11char_traitsIcESaIcEE11_M_is_localEv.exit.thread.i.i: ; preds = %11
  %16 = getelementptr inbounds nuw i8, ptr %3, i64 8
  %17 = load i64, ptr %16, align 8, !tbaa !18
  %18 = icmp ult i64 %17, 16
  call void @llvm.assume(i1 %18)
  br label %_ZNSt7__cxx1112basic_stringIcSt11char_traitsIcESaIcEED2Ev.exit

_ZNKSt7__cxx1112basic_stringIcSt11char_traitsIcESaIcEE11_M_is_localEv.exit.i.i: ; preds = %11
  call void @_ZdlPv(ptr noundef %13) #43
  br label %_ZNSt7__cxx1112basic_stringIcSt11char_traitsIcESaIcEED2Ev.exit

_ZNSt7__cxx1112basic_stringIcSt11char_traitsIcESaIcEED2Ev.exit: ; preds = %_ZNKSt7__cxx1112basic_stringIcSt11char_traitsIcESaIcEE11_M_is_localEv.exit.i.i, %_ZNKSt7__cxx1112basic_stringIcSt11char_traitsIcESaIcEE11_M_is_localEv.exit.thread.i.i
  call void @llvm.lifetime.end.p0(i64 1, ptr nonnull %4) #41
  call void @llvm.lifetime.end.p0(i64 32, ptr nonnull %3) #41
  call void @llvm.lifetime.end.p0(i64 512, ptr nonnull %2) #41
  resume { ptr, i32 } %12

19:                                               ; preds = %1
  %20 = getelementptr inbounds nuw i8, ptr %2, i64 4
  %21 = load i32, ptr %20, align 4, !tbaa !19
  %22 = and i32 %21, 7
  %23 = shl i32 %7, 3
  %24 = add i32 %23, -8
  %25 = or disjoint i32 %22, %24
  call void @llvm.lifetime.end.p0(i64 512, ptr nonnull %2) #41
  ret i32 %25
}